target datalayout = "e-m:e-p270:32:32-p271:32:32-p272:64:64-i64:64-i128:128-f80:128-n8:16:32:64-S128"
target triple = "x86_64-pc-linux-gnu"

%"class.llvm::SmallVectorBase" = type { ptr, i32, i32 }
%"class.llvm::SmallPtrSetImplBase.base" = type <{ ptr, ptr, i32, i32, i32 }>
%"class.std::__cxx11::basic_string" = type { %"struct.std::__cxx11::basic_string<char>::_Alloc_hider", i64, %union.anon }
%"struct.std::__cxx11::basic_string<char>::_Alloc_hider" = type { ptr }
%union.anon = type { i64, [8 x i8] }
%"class.llvm::SmallVectorBase.23" = type { ptr, i64, i64 }
%"class.llvm::StringMapImpl" = type { ptr, i32, i32, i32, i32 }
%"class.llvm::Register" = type { i32 }
%"class.llvm::BitVector" = type <{ %"class.llvm::SmallVector.650", i32, [4 x i8] }>
%"class.llvm::SmallVector.650" = type { %"class.llvm::SmallVectorImpl.297", %"struct.llvm::SmallVectorStorage.651" }
%"class.llvm::SmallVectorImpl.297" = type { %"class.llvm::SmallVectorTemplateBase.298" }
%"class.llvm::SmallVectorTemplateBase.298" = type { %"class.llvm::SmallVectorTemplateCommon.299" }
%"class.llvm::SmallVectorTemplateCommon.299" = type { %"class.llvm::SmallVectorBase" }
%"struct.llvm::SmallVectorStorage.651" = type { [48 x i8] }
%"class.llvm::MachineRegisterInfo" = type { ptr, %"class.llvm::SmallPtrSet.804", i8, [7 x i8], %"class.llvm::IndexedMap.807", %"class.llvm::IndexedMap.820", %"class.llvm::StringSet", i8, %"class.llvm::SmallVector.828", %"class.llvm::IndexedMap.833", %"class.std::unique_ptr.844", %"class.llvm::BitVector", %"class.llvm::BitVector", %"class.llvm::IndexedMap.852", %"class.std::vector.859" }
%"class.llvm::SmallPtrSet.804" = type { %"class.llvm::SmallPtrSetImpl.base.806", [1 x ptr] }
%"class.llvm::SmallPtrSetImpl.base.806" = type { %"class.llvm::SmallPtrSetImplBase.base" }
%"class.llvm::IndexedMap.807" = type <{ %"class.llvm::SmallVector.808", %"struct.std::pair.813", [8 x i8] }>
%"class.llvm::SmallVector.808" = type { %"class.llvm::SmallVectorImpl.809" }
%"class.llvm::SmallVectorImpl.809" = type { %"class.llvm::SmallVectorTemplateBase.810" }
%"class.llvm::SmallVectorTemplateBase.810" = type { %"class.llvm::SmallVectorTemplateCommon.811" }
%"class.llvm::SmallVectorTemplateCommon.811" = type { %"class.llvm::SmallVectorBase" }
%"struct.std::pair.813" = type { %"class.llvm::PointerUnion", ptr }
%"class.llvm::PointerUnion" = type { %"class.llvm::pointer_union_detail::PointerUnionMembers" }
%"class.llvm::pointer_union_detail::PointerUnionMembers" = type { %"class.llvm::pointer_union_detail::PointerUnionMembers.815" }
%"class.llvm::pointer_union_detail::PointerUnionMembers.815" = type { %"class.llvm::pointer_union_detail::PointerUnionMembers.816" }
%"class.llvm::pointer_union_detail::PointerUnionMembers.816" = type { %"class.llvm::PointerIntPair.817" }
%"class.llvm::PointerIntPair.817" = type { %"struct.llvm::detail::PunnedPointer.818" }
%"struct.llvm::detail::PunnedPointer.818" = type { [8 x i8] }
%"class.llvm::IndexedMap.820" = type <{ %"class.llvm::SmallVector.821", %"class.std::__cxx11::basic_string", [8 x i8] }>
%"class.llvm::SmallVector.821" = type { %"class.llvm::SmallVectorImpl.822" }
%"class.llvm::SmallVectorImpl.822" = type { %"class.llvm::SmallVectorTemplateBase.823" }
%"class.llvm::SmallVectorTemplateBase.823" = type { %"class.llvm::SmallVectorTemplateCommon.824" }
%"class.llvm::SmallVectorTemplateCommon.824" = type { %"class.llvm::SmallVectorBase" }
%"class.llvm::StringSet" = type { %"class.llvm::StringMap.827" }
%"class.llvm::StringMap.827" = type { %"class.llvm::StringMapImpl" }
%"class.llvm::SmallVector.828" = type { %"class.llvm::SmallVectorImpl.829", %"struct.llvm::SmallVectorStorage.832" }
%"class.llvm::SmallVectorImpl.829" = type { %"class.llvm::SmallVectorTemplateBase.830" }
%"class.llvm::SmallVectorTemplateBase.830" = type { %"class.llvm::SmallVectorTemplateCommon.831" }
%"class.llvm::SmallVectorTemplateCommon.831" = type { %"class.llvm::SmallVectorBase.23" }
%"struct.llvm::SmallVectorStorage.832" = type { [32 x i8] }
%"class.llvm::IndexedMap.833" = type <{ %"class.llvm::SmallVector.834", %"struct.std::pair.839", [8 x i8] }>
%"class.llvm::SmallVector.834" = type { %"class.llvm::SmallVectorImpl.835" }
%"class.llvm::SmallVectorImpl.835" = type { %"class.llvm::SmallVectorTemplateBase.836" }
%"class.llvm::SmallVectorTemplateBase.836" = type { %"class.llvm::SmallVectorTemplateCommon.837" }
%"class.llvm::SmallVectorTemplateCommon.837" = type { %"class.llvm::SmallVectorBase" }
%"struct.std::pair.839" = type { i32, %"class.llvm::SmallVector.841" }
%"class.llvm::SmallVector.841" = type { %"class.llvm::SmallVectorImpl.778", %"struct.llvm::SmallVectorStorage.842" }
%"class.llvm::SmallVectorImpl.778" = type { %"class.llvm::SmallVectorTemplateBase.779" }
%"class.llvm::SmallVectorTemplateBase.779" = type { %"class.llvm::SmallVectorTemplateCommon.780" }
%"class.llvm::SmallVectorTemplateCommon.780" = type { %"class.llvm::SmallVectorBase" }
%"struct.llvm::SmallVectorStorage.842" = type { [16 x i8] }
%"class.std::unique_ptr.844" = type { %"struct.std::__uniq_ptr_data.845" }
%"struct.std::__uniq_ptr_data.845" = type { %"class.std::__uniq_ptr_impl.846" }
%"class.std::__uniq_ptr_impl.846" = type { %"class.std::tuple.847" }
%"class.std::tuple.847" = type { %"struct.std::_Tuple_impl.848" }
%"struct.std::_Tuple_impl.848" = type { %"struct.std::_Head_base.851" }
%"struct.std::_Head_base.851" = type { ptr }
%"class.llvm::IndexedMap.852" = type <{ %"class.llvm::SmallVector.853", %"class.llvm::LLT", [8 x i8] }>
%"class.llvm::SmallVector.853" = type { %"class.llvm::SmallVectorImpl.854" }
%"class.llvm::SmallVectorImpl.854" = type { %"class.llvm::SmallVectorTemplateBase.855" }
%"class.llvm::SmallVectorTemplateBase.855" = type { %"class.llvm::SmallVectorTemplateCommon.856" }
%"class.llvm::SmallVectorTemplateCommon.856" = type { %"class.llvm::SmallVectorBase" }
%"class.llvm::LLT" = type { i64 }
%"class.std::vector.859" = type { %"struct.std::_Vector_base.860" }
%"struct.std::_Vector_base.860" = type { %"struct.std::_Vector_base<std::pair<llvm::MCRegister, llvm::Register>, std::allocator<std::pair<llvm::MCRegister, llvm::Register>>>::_Vector_impl" }
%"struct.std::_Vector_base<std::pair<llvm::MCRegister, llvm::Register>, std::allocator<std::pair<llvm::MCRegister, llvm::Register>>>::_Vector_impl" = type { %"struct.std::_Vector_base<std::pair<llvm::MCRegister, llvm::Register>, std::allocator<std::pair<llvm::MCRegister, llvm::Register>>>::_Vector_impl_data" }
%"struct.std::_Vector_base<std::pair<llvm::MCRegister, llvm::Register>, std::allocator<std::pair<llvm::MCRegister, llvm::Register>>>::_Vector_impl_data" = type { ptr, ptr, ptr }

; Function Attrs: mustprogress nounwind uwtable
define linkonce_odr hidden noundef ptr @_ZN4llvm20pointer_union_detail22PointerUnionUIntTraitsIJPKNS_19TargetRegisterClassEPKNS_12RegisterBankEEE18getFromVoidPointerEPv(ptr noundef %0) #1 comdat align 2 {
  %2 = alloca ptr, align 8
  store ptr %0, ptr %2, align 8
  %3 = load ptr, ptr %2, align 8
  ret ptr %3
}

; Function Attrs: mustprogress nounwind uwtable
define linkonce_odr hidden noundef i64 @_ZNK4llvm6detail13PunnedPointerIPvE5asIntEv(ptr noundef nonnull align 8 dereferenceable(8) %0) #1 comdat align 2 {
  %2 = alloca ptr, align 8
  %3 = alloca i64, align 8
  store ptr %0, ptr %2, align 8
  %4 = load ptr, ptr %2, align 8
  store i64 0, ptr %3, align 8
  %5 = getelementptr inbounds nuw %"struct.llvm::detail::PunnedPointer.818", ptr %4, i32 0, i32 0
  %6 = getelementptr inbounds [8 x i8], ptr %5, i64 0, i64 0
  call void @llvm.memcpy.p0.p0.i64(ptr align 8 %3, ptr align 8 %6, i64 8, i1 false)
  %7 = load i64, ptr %3, align 8
  ret i64 %7
}

; Function Attrs: mustprogress nounwind uwtable
define linkonce_odr hidden noundef ptr @_ZN4llvm21PointerLikeTypeTraitsIPNS_19TargetRegisterClassEE18getFromVoidPointerEPv(ptr noundef %0) #1 comdat align 2 {
  %2 = alloca ptr, align 8
  store ptr %0, ptr %2, align 8
  %3 = load ptr, ptr %2, align 8
  ret ptr %3
}

; Function Attrs: mustprogress nounwind uwtable
define linkonce_odr hidden noundef ptr @_ZN4llvm18PointerIntPairInfoIPvLj1ENS_20pointer_union_detail22PointerUnionUIntTraitsIJPKNS_19TargetRegisterClassEPKNS_12RegisterBankEEEEE10getPointerEl(i64 noundef %0) #1 comdat align 2 {
  %2 = alloca i64, align 8
  store i64 %0, ptr %2, align 8
  %3 = load i64, ptr %2, align 8
  %4 = and i64 %3, -8
  %5 = inttoptr i64 %4 to ptr
  %6 = call noundef ptr @_ZN4llvm20pointer_union_detail22PointerUnionUIntTraitsIJPKNS_19TargetRegisterClassEPKNS_12RegisterBankEEE18getFromVoidPointerEPv(ptr noundef %5)
  ret ptr %6
}

; Function Attrs: mustprogress nounwind uwtable
define linkonce_odr hidden noundef i64 @_ZNK4llvm6detail13PunnedPointerIPvEcvlEv(ptr noundef nonnull align 8 dereferenceable(8) %0) #1 comdat align 2 {
  %2 = alloca ptr, align 8
  store ptr %0, ptr %2, align 8
  %3 = load ptr, ptr %2, align 8
  %4 = call noundef i64 @_ZNK4llvm6detail13PunnedPointerIPvE5asIntEv(ptr noundef nonnull align 8 dereferenceable(8) %3)
  ret i64 %4
}

; Function Attrs: mustprogress nounwind uwtable
define linkonce_odr hidden noundef ptr @_ZN4llvm21PointerLikeTypeTraitsIPKNS_19TargetRegisterClassEE18getFromVoidPointerEPKv(ptr noundef %0) #1 comdat align 2 {
  %2 = alloca ptr, align 8
  store ptr %0, ptr %2, align 8
  %3 = load ptr, ptr %2, align 8
  %4 = call noundef ptr @_ZN4llvm21PointerLikeTypeTraitsIPNS_19TargetRegisterClassEE18getFromVoidPointerEPv(ptr noundef %3)
  ret ptr %4
}

; Function Attrs: mustprogress nounwind uwtable
define linkonce_odr hidden noundef ptr @_ZNK4llvm14PointerIntPairIPvLj1EiNS_20pointer_union_detail22PointerUnionUIntTraitsIJPKNS_19TargetRegisterClassEPKNS_12RegisterBankEEEENS_18PointerIntPairInfoIS1_Lj1ESA_EEE10getPointerEv(ptr noundef nonnull align 8 dereferenceable(8) %0) #1 comdat align 2 {
  %2 = alloca ptr, align 8
  store ptr %0, ptr %2, align 8
  %3 = load ptr, ptr %2, align 8
  %4 = getelementptr inbounds nuw %"class.llvm::PointerIntPair.817", ptr %3, i32 0, i32 0
  %5 = call noundef i64 @_ZNK4llvm6detail13PunnedPointerIPvEcvlEv(ptr noundef nonnull align 8 dereferenceable(8) %4)
  %6 = call noundef ptr @_ZN4llvm18PointerIntPairInfoIPvLj1ENS_20pointer_union_detail22PointerUnionUIntTraitsIJPKNS_19TargetRegisterClassEPKNS_12RegisterBankEEEEE10getPointerEl(i64 noundef %5)
  ret ptr %6
}

; Function Attrs: mustprogress nounwind uwtable
define linkonce_odr hidden noundef ptr @_ZN4llvm24CastInfoPointerUnionImplIJPKNS_19TargetRegisterClassEPKNS_12RegisterBankEEE6doCastIS3_EET_RNS_12PointerUnionIJS3_S6_EEE(ptr noundef nonnull align 8 dereferenceable(8) %0) #1 comdat align 2 {
  %2 = alloca ptr, align 8
  store ptr %0, ptr %2, align 8
  %3 = load ptr, ptr %2, align 8
  %4 = getelementptr inbounds nuw %"class.llvm::pointer_union_detail::PointerUnionMembers.816", ptr %3, i32 0, i32 0
  %5 = call noundef ptr @_ZNK4llvm14PointerIntPairIPvLj1EiNS_20pointer_union_detail22PointerUnionUIntTraitsIJPKNS_19TargetRegisterClassEPKNS_12RegisterBankEEEENS_18PointerIntPairInfoIS1_Lj1ESA_EEE10getPointerEv(ptr noundef nonnull align 8 dereferenceable(8) %4)
  %6 = call noundef ptr @_ZN4llvm21PointerLikeTypeTraitsIPKNS_19TargetRegisterClassEE18getFromVoidPointerEPKv(ptr noundef %5)
  ret ptr %6
}

; Function Attrs: mustprogress nounwind uwtable
define linkonce_odr hidden noundef i32 @_ZNK4llvm8RegistercvjEv(ptr noundef nonnull align 4 dereferenceable(4) %0) #1 comdat align 2 {
  %2 = alloca ptr, align 8
  store ptr %0, ptr %2, align 8
  %3 = load ptr, ptr %2, align 8
  %4 = getelementptr inbounds nuw %"class.llvm::Register", ptr %3, i32 0, i32 0
  %5 = load i32, ptr %4, align 4
  ret i32 %5
}

; Function Attrs: mustprogress nounwind uwtable
define linkonce_odr hidden noundef ptr @_ZN4llvm8CastInfoIPKNS_19TargetRegisterClassENS_12PointerUnionIJS3_PKNS_12RegisterBankEEEEvE6doCastERS8_(ptr noundef nonnull align 8 dereferenceable(8) %0) #1 comdat align 2 {
  %2 = alloca ptr, align 8
  store ptr %0, ptr %2, align 8
  %3 = load ptr, ptr %2, align 8
  %4 = call noundef ptr @_ZN4llvm24CastInfoPointerUnionImplIJPKNS_19TargetRegisterClassEPKNS_12RegisterBankEEE6doCastIS3_EET_RNS_12PointerUnionIJS3_S6_EEE(ptr noundef nonnull align 8 dereferenceable(8) %3)
  ret ptr %4
}

; Function Attrs: mustprogress nounwind uwtable
define linkonce_odr hidden noundef ptr @_ZNK4llvm25SmallVectorTemplateCommonISt4pairINS_12PointerUnionIJPKNS_19TargetRegisterClassEPKNS_12RegisterBankEEEEPNS_14MachineOperandEEvE5beginEv(ptr noundef nonnull align 8 dereferenceable(16) %0) #1 comdat align 2 {
  %2 = alloca ptr, align 8
  store ptr %0, ptr %2, align 8
  %3 = load ptr, ptr %2, align 8
  %4 = getelementptr inbounds nuw %"class.llvm::SmallVectorBase", ptr %3, i32 0, i32 0
  %5 = load ptr, ptr %4, align 8
  ret ptr %5
}

; Function Attrs: mustprogress nounwind uwtable
define linkonce_odr hidden noundef i32 @_ZN4llvm8Register13virtReg2IndexES0_(i32 %0) #1 comdat align 2 {
  %2 = alloca %"class.llvm::Register", align 4
  %3 = getelementptr inbounds nuw %"class.llvm::Register", ptr %2, i32 0, i32 0
  store i32 %0, ptr %3, align 4
  %4 = call noundef i32 @_ZNK4llvm8RegistercvjEv(ptr noundef nonnull align 4 dereferenceable(4) %2)
  %5 = and i32 %4, 2147483647
  ret i32 %5
}

; Function Attrs: mustprogress nounwind uwtable
define linkonce_odr hidden noundef ptr @_ZN4llvm28ConstStrippingForwardingCastIPKNS_19TargetRegisterClassEKNS_12PointerUnionIJS3_PKNS_12RegisterBankEEEENS_8CastInfoIS3_S8_vEEE6doCastERS9_(ptr noundef nonnull align 8 dereferenceable(8) %0) #1 comdat align 2 {
  %2 = alloca ptr, align 8
  store ptr %0, ptr %2, align 8
  %3 = load ptr, ptr %2, align 8
  %4 = call noundef ptr @_ZN4llvm8CastInfoIPKNS_19TargetRegisterClassENS_12PointerUnionIJS3_PKNS_12RegisterBankEEEEvE6doCastERS8_(ptr noundef nonnull align 8 dereferenceable(8) %3)
  ret ptr %4
}

; Function Attrs: mustprogress nounwind uwtable
define linkonce_odr hidden noundef nonnull align 8 dereferenceable(16) ptr @_ZNK4llvm25SmallVectorTemplateCommonISt4pairINS_12PointerUnionIJPKNS_19TargetRegisterClassEPKNS_12RegisterBankEEEEPNS_14MachineOperandEEvEixEm(ptr noundef nonnull align 8 dereferenceable(16) %0, i64 noundef %1) #1 comdat align 2 {
  %3 = alloca ptr, align 8
  %4 = alloca i64, align 8
  store ptr %0, ptr %3, align 8
  store i64 %1, ptr %4, align 8
  %5 = load ptr, ptr %3, align 8
  %6 = call noundef ptr @_ZNK4llvm25SmallVectorTemplateCommonISt4pairINS_12PointerUnionIJPKNS_19TargetRegisterClassEPKNS_12RegisterBankEEEEPNS_14MachineOperandEEvE5beginEv(ptr noundef nonnull align 8 dereferenceable(16) %5)
  %7 = load i64, ptr %4, align 8
  %8 = getelementptr inbounds %"struct.std::pair.813", ptr %6, i64 %7
  ret ptr %8
}

; Function Attrs: mustprogress nounwind uwtable
define linkonce_odr hidden noundef i32 @_ZNK4llvm20VirtReg2IndexFunctorclENS_8RegisterE(ptr noundef nonnull align 1 dereferenceable(1) %0, i32 %1) #1 comdat align 2 {
  %3 = alloca %"class.llvm::Register", align 4
  %4 = alloca ptr, align 8
  %5 = alloca %"class.llvm::Register", align 4
  %6 = getelementptr inbounds nuw %"class.llvm::Register", ptr %3, i32 0, i32 0
  store i32 %1, ptr %6, align 4
  store ptr %0, ptr %4, align 8
  call void @llvm.memcpy.p0.p0.i64(ptr align 4 %5, ptr align 4 %3, i64 4, i1 false)
  %7 = getelementptr inbounds nuw %"class.llvm::Register", ptr %5, i32 0, i32 0
  %8 = load i32, ptr %7, align 4
  %9 = call noundef i32 @_ZN4llvm8Register13virtReg2IndexES0_(i32 %8)
  ret i32 %9
}

; Function Attrs: mustprogress nounwind uwtable
define linkonce_odr hidden noundef ptr @_ZN4llvm4castIPKNS_19TargetRegisterClassENS_12PointerUnionIJS3_PKNS_12RegisterBankEEEEEEDcRKT0_(ptr noundef nonnull align 8 dereferenceable(8) %0) #1 comdat {
  %2 = alloca ptr, align 8
  store ptr %0, ptr %2, align 8
  %3 = load ptr, ptr %2, align 8
  %4 = call noundef ptr @_ZN4llvm28ConstStrippingForwardingCastIPKNS_19TargetRegisterClassEKNS_12PointerUnionIJS3_PKNS_12RegisterBankEEEENS_8CastInfoIS3_S8_vEEE6doCastERS9_(ptr noundef nonnull align 8 dereferenceable(8) %3)
  ret ptr %4
}

; Function Attrs: mustprogress nounwind uwtable
define linkonce_odr hidden noundef nonnull align 8 dereferenceable(16) ptr @_ZNK4llvm10IndexedMapISt4pairINS_12PointerUnionIJPKNS_19TargetRegisterClassEPKNS_12RegisterBankEEEEPNS_14MachineOperandEENS_20VirtReg2IndexFunctorEEixENS_8RegisterE(ptr noundef nonnull align 8 dereferenceable(33) %0, i32 %1) #1 comdat align 2 {
  %3 = alloca %"class.llvm::Register", align 4
  %4 = alloca ptr, align 8
  %5 = alloca %"class.llvm::Register", align 4
  %6 = getelementptr inbounds nuw %"class.llvm::Register", ptr %3, i32 0, i32 0
  store i32 %1, ptr %6, align 4
  store ptr %0, ptr %4, align 8
  %7 = load ptr, ptr %4, align 8
  %8 = getelementptr inbounds nuw %"class.llvm::IndexedMap.807", ptr %7, i32 0, i32 0
  %9 = getelementptr inbounds i8, ptr %7, i64 32
  call void @llvm.memcpy.p0.p0.i64(ptr align 4 %5, ptr align 4 %3, i64 4, i1 false)
  %10 = getelementptr inbounds nuw %"class.llvm::Register", ptr %5, i32 0, i32 0
  %11 = load i32, ptr %10, align 4
  %12 = call noundef i32 @_ZNK4llvm20VirtReg2IndexFunctorclENS_8RegisterE(ptr noundef nonnull align 1 dereferenceable(1) %9, i32 %11)
  %13 = zext i32 %12 to i64
  %14 = call noundef nonnull align 8 dereferenceable(16) ptr @_ZNK4llvm25SmallVectorTemplateCommonISt4pairINS_12PointerUnionIJPKNS_19TargetRegisterClassEPKNS_12RegisterBankEEEEPNS_14MachineOperandEEvEixEm(ptr noundef nonnull align 8 dereferenceable(16) %8, i64 noundef %13)
  ret ptr %14
}

; Function Attrs: mustprogress nounwind uwtable
define linkonce_odr hidden void @_ZN4llvm8RegisterC2Ej(ptr noundef nonnull align 4 dereferenceable(4) %0, i32 noundef %1) unnamed_addr #1 comdat align 2 {
  %3 = alloca ptr, align 8
  %4 = alloca i32, align 4
  store ptr %0, ptr %3, align 8
  store i32 %1, ptr %4, align 4
  %5 = load ptr, ptr %3, align 8
  %6 = getelementptr inbounds nuw %"class.llvm::Register", ptr %5, i32 0, i32 0
  %7 = load i32, ptr %4, align 4
  store i32 %7, ptr %6, align 4
  ret void
}

; Function Attrs: mustprogress nounwind uwtable
define linkonce_odr hidden noundef i32 @_ZNK4llvm8Register2idEv(ptr noundef nonnull align 4 dereferenceable(4) %0) #1 comdat align 2 {
  %2 = alloca ptr, align 8
  store ptr %0, ptr %2, align 8
  %3 = load ptr, ptr %2, align 8
  %4 = getelementptr inbounds nuw %"class.llvm::Register", ptr %3, i32 0, i32 0
  %5 = load i32, ptr %4, align 4
  ret i32 %5
}

; Function Attrs: mustprogress nounwind uwtable
define linkonce_odr hidden noundef ptr @_ZNK4llvm19MachineRegisterInfo11getRegClassENS_8RegisterE(ptr noundef nonnull align 8 dereferenceable(512) %0, i32 %1) #1 comdat align 2 {
  %3 = alloca %"class.llvm::Register", align 4
  %4 = alloca ptr, align 8
  %5 = alloca %"class.llvm::Register", align 4
  %6 = getelementptr inbounds nuw %"class.llvm::Register", ptr %3, i32 0, i32 0
  store i32 %1, ptr %6, align 4
  store ptr %0, ptr %4, align 8
  %7 = load ptr, ptr %4, align 8
  %8 = getelementptr inbounds nuw %"class.llvm::MachineRegisterInfo", ptr %7, i32 0, i32 4
  %9 = call noundef i32 @_ZNK4llvm8Register2idEv(ptr noundef nonnull align 4 dereferenceable(4) %3)
  call void @_ZN4llvm8RegisterC2Ej(ptr noundef nonnull align 4 dereferenceable(4) %5, i32 noundef %9)
  %10 = getelementptr inbounds nuw %"class.llvm::Register", ptr %5, i32 0, i32 0
  %11 = load i32, ptr %10, align 4
  %12 = call noundef nonnull align 8 dereferenceable(16) ptr @_ZNK4llvm10IndexedMapISt4pairINS_12PointerUnionIJPKNS_19TargetRegisterClassEPKNS_12RegisterBankEEEEPNS_14MachineOperandEENS_20VirtReg2IndexFunctorEEixENS_8RegisterE(ptr noundef nonnull align 8 dereferenceable(33) %8, i32 %11)
  %13 = getelementptr inbounds nuw %"struct.std::pair.813", ptr %12, i32 0, i32 0
  %14 = call noundef ptr @_ZN4llvm4castIPKNS_19TargetRegisterClassENS_12PointerUnionIJS3_PKNS_12RegisterBankEEEEEEDcRKT0_(ptr noundef nonnull align 8 dereferenceable(8) %13)
  ret ptr %14
}

; Function Attrs: mustprogress nounwind uwtable
define internal noundef zeroext i1 @_ZL25onlyAllocateTileRegistersRKN4llvm18TargetRegisterInfoERKNS_19MachineRegisterInfoENS_8RegisterE(ptr noundef nonnull align 8 dereferenceable(308) %0, ptr noundef nonnull align 8 dereferenceable(512) %1, i32 %2) #1 {
  %4 = alloca %"class.llvm::Register", align 4
  %5 = alloca ptr, align 8
  %6 = alloca ptr, align 8
  %7 = alloca ptr, align 8
  %8 = alloca %"class.llvm::Register", align 4
  %9 = getelementptr inbounds nuw %"class.llvm::Register", ptr %4, i32 0, i32 0
  store i32 %2, ptr %9, align 4
  store ptr %0, ptr %5, align 8
  store ptr %1, ptr %6, align 8
  %10 = load ptr, ptr %6, align 8
  call void @llvm.memcpy.p0.p0.i64(ptr align 4 %8, ptr align 4 %4, i64 4, i1 false)
  %11 = getelementptr inbounds nuw %"class.llvm::Register", ptr %8, i32 0, i32 0
  %12 = load i32, ptr %11, align 4
  %13 = call noundef ptr @_ZNK4llvm19MachineRegisterInfo11getRegClassENS_8RegisterE(ptr noundef nonnull align 8 dereferenceable(512) %10, i32 %12)
  store ptr %13, ptr %7, align 8
  %14 = load ptr, ptr %5, align 8
  %15 = load ptr, ptr %7, align 8
  %16 = call noundef zeroext i1 @_ZNK4llvm15X86RegisterInfo19isTileRegisterClassEPKNS_19TargetRegisterClassE(ptr noundef nonnull align 8 dereferenceable(328) %14, ptr noundef %15)
  ret i1 %16
}