; Function Attrs: mustprogress nounwind uwtable
define internal noundef zeroext i1 @_ZL25onlyAllocateTileRegistersRKN4llvm18TargetRegisterInfoERKNS_19MachineRegisterInfoENS_8RegisterE(ptr noundef nonnull align 8 dereferenceable(308) %0, ptr nocapture noundef nonnull readonly align 8 dereferenceable(512) %1, i32 %2) #0 {
  %4 = getelementptr inbounds nuw i8, ptr %1, i64 56
  %5 = and i32 %2, 2147483647
  %6 = zext nneg i32 %5 to i64
  %7 = load ptr, ptr %4, align 8
  %8 = getelementptr inbounds %"struct.std::pair.813", ptr %7, i64 %6
  %.0.copyload.i.i.i.i.i.i.i.i = load i64, ptr %8, align 8
  %9 = and i64 %.0.copyload.i.i.i.i.i.i.i.i, -8
  %10 = inttoptr i64 %9 to ptr
  %11 = tail call noundef zeroext i1 @_ZNK4llvm15X86RegisterInfo19isTileRegisterClassEPKNS_19TargetRegisterClassE(ptr noundef nonnull align 8 dereferenceable(328) %0, ptr noundef %10) #21
  ret i1 %11
}